target datalayout = "e-m:e-p270:32:32-p271:32:32-p272:64:64-i64:64-i128:128-f80:128-n8:16:32:64-S128"
target triple = "x86_64-pc-linux-gnu"

%struct.pcre2_real_code_8 = type { %struct.pcre2_memctl, ptr, ptr, [32 x i8], i64, i32, i32, i32, i32, i32, i32, i32, i32, i32, i32, i16, i16, i16, i16, i16, i16, i16, i16 }
%struct.pcre2_memctl = type { ptr, ptr, ptr }
%struct.executable_functions = type { [3 x ptr], [3 x ptr], [3 x i64], i32, i32 }
%struct.jit_arguments = type { ptr, ptr, ptr, ptr, ptr, ptr, ptr, ptr, ptr, i64, i32, i32, i32 }
%struct.sljit_stack = type { ptr, ptr, ptr, ptr }
%union.anon = type { ptr }
%struct.pcre2_real_match_data_8 = type { %struct.pcre2_memctl, ptr, ptr, ptr, ptr, i64, i64, i64, i64, i64, i8, i8, i16, i32, [131072 x i64] }
%struct.pcre2_real_match_context_8 = type { %struct.pcre2_memctl, ptr, ptr, ptr, ptr, ptr, ptr, i64, i32, i32, i32 }
%struct.pcre2_real_jit_stack_8 = type { %struct.pcre2_memctl, ptr }

; Function Attrs: nounwind uwtable
define internal i32 @jit_machine_stack_exec(ptr noundef %0, ptr noundef %1) #0 {
  %3 = alloca ptr, align 8
  %4 = alloca ptr, align 8
  %5 = alloca [32768 x i8], align 16
  %6 = alloca %struct.sljit_stack, align 8
  store ptr %0, ptr %3, align 8
  store ptr %1, ptr %4, align 8
  %7 = getelementptr inbounds [32768 x i8], ptr %5, i64 0, i64 0
  %8 = getelementptr inbounds %struct.sljit_stack, ptr %6, i32 0, i32 3
  store ptr %7, ptr %8, align 8
  %9 = getelementptr inbounds [32768 x i8], ptr %5, i64 0, i64 0
  %10 = getelementptr inbounds %struct.sljit_stack, ptr %6, i32 0, i32 2
  store ptr %9, ptr %10, align 8
  %11 = getelementptr inbounds [32768 x i8], ptr %5, i64 0, i64 0
  %12 = getelementptr inbounds i8, ptr %11, i64 32768
  %13 = getelementptr inbounds %struct.sljit_stack, ptr %6, i32 0, i32 1
  store ptr %12, ptr %13, align 8
  %14 = getelementptr inbounds [32768 x i8], ptr %5, i64 0, i64 0
  %15 = getelementptr inbounds i8, ptr %14, i64 32768
  %16 = getelementptr inbounds %struct.sljit_stack, ptr %6, i32 0, i32 0
  store ptr %15, ptr %16, align 8
  %17 = load ptr, ptr %3, align 8
  %18 = getelementptr inbounds %struct.jit_arguments, ptr %17, i32 0, i32 0
  store ptr %6, ptr %18, align 8
  %19 = load ptr, ptr %4, align 8
  %20 = load ptr, ptr %3, align 8
  %21 = call i32 %19(ptr noundef %20)
  ret i32 %21
}

; Function Attrs: nounwind uwtable
define i32 @php_pcre2_jit_match(ptr noundef %0, ptr noundef %1, i64 noundef %2, i64 noundef %3, i32 noundef %4, ptr noundef %5, ptr noundef %6) #0 {
  %8 = alloca i32, align 4
  %9 = alloca ptr, align 8
  %10 = alloca ptr, align 8
  %11 = alloca i64, align 8
  %12 = alloca i64, align 8
  %13 = alloca i32, align 4
  %14 = alloca ptr, align 8
  %15 = alloca ptr, align 8
  %16 = alloca ptr, align 8
  %17 = alloca ptr, align 8
  %18 = alloca ptr, align 8
  %19 = alloca i32, align 4
  %20 = alloca i32, align 4
  %21 = alloca %union.anon, align 8
  %22 = alloca %struct.jit_arguments, align 8
  %23 = alloca i32, align 4
  %24 = alloca i32, align 4
  store ptr %0, ptr %9, align 8
  store ptr %1, ptr %10, align 8
  store i64 %2, ptr %11, align 8
  store i64 %3, ptr %12, align 8
  store i32 %4, ptr %13, align 4
  store ptr %5, ptr %14, align 8
  store ptr %6, ptr %15, align 8
  %25 = load ptr, ptr %9, align 8
  store ptr %25, ptr %16, align 8
  %26 = load ptr, ptr %16, align 8
  %27 = getelementptr inbounds %struct.pcre2_real_code_8, ptr %26, i32 0, i32 2
  %28 = load ptr, ptr %27, align 8
  store ptr %28, ptr %17, align 8
  %29 = load ptr, ptr %14, align 8
  %30 = getelementptr inbounds %struct.pcre2_real_match_data_8, ptr %29, i32 0, i32 12
  %31 = load i16, ptr %30, align 2
  %32 = zext i16 %31 to i32
  store i32 %32, ptr %19, align 4
  store i32 0, ptr %24, align 4
  %33 = load i32, ptr %13, align 4
  %34 = and i32 %33, 32
  %35 = icmp ne i32 %34, 0
  br i1 %35, label %36, label %37

36:                                               ; preds = %7
  store i32 2, ptr %24, align 4
  br label %43

37:                                               ; preds = %7
  %38 = load i32, ptr %13, align 4
  %39 = and i32 %38, 16
  %40 = icmp ne i32 %39, 0
  br i1 %40, label %41, label %42

41:                                               ; preds = %37
  store i32 1, ptr %24, align 4
  br label %42

42:                                               ; preds = %41, %37
  br label %43

43:                                               ; preds = %42, %36
  %44 = load ptr, ptr %17, align 8
  %45 = icmp eq ptr %44, null
  br i1 %45, label %54, label %46

46:                                               ; preds = %43
  %47 = load ptr, ptr %17, align 8
  %48 = getelementptr inbounds %struct.executable_functions, ptr %47, i32 0, i32 0
  %49 = load i32, ptr %24, align 4
  %50 = sext i32 %49 to i64
  %51 = getelementptr inbounds [3 x ptr], ptr %48, i64 0, i64 %50
  %52 = load ptr, ptr %51, align 8
  %53 = icmp eq ptr %52, null
  br i1 %53, label %54, label %55

54:                                               ; preds = %46, %43
  store i32 -45, ptr %8, align 4
  br label %218

55:                                               ; preds = %46
  %56 = load ptr, ptr %10, align 8
  %57 = load i64, ptr %12, align 8
  %58 = getelementptr inbounds i8, ptr %56, i64 %57
  %59 = getelementptr inbounds %struct.jit_arguments, ptr %22, i32 0, i32 1
  store ptr %58, ptr %59, align 8
  %60 = load ptr, ptr %10, align 8
  %61 = getelementptr inbounds %struct.jit_arguments, ptr %22, i32 0, i32 2
  store ptr %60, ptr %61, align 8
  %62 = load ptr, ptr %10, align 8
  %63 = load i64, ptr %11, align 8
  %64 = getelementptr inbounds i8, ptr %62, i64 %63
  %65 = getelementptr inbounds %struct.jit_arguments, ptr %22, i32 0, i32 3
  store ptr %64, ptr %65, align 8
  %66 = load ptr, ptr %14, align 8
  %67 = getelementptr inbounds %struct.jit_arguments, ptr %22, i32 0, i32 4
  store ptr %66, ptr %67, align 8
  %68 = load ptr, ptr %10, align 8
  %69 = getelementptr inbounds %struct.jit_arguments, ptr %22, i32 0, i32 5
  store ptr %68, ptr %69, align 8
  %70 = getelementptr inbounds %struct.jit_arguments, ptr %22, i32 0, i32 6
  store ptr null, ptr %70, align 8
  %71 = load i32, ptr %13, align 4
  %72 = getelementptr inbounds %struct.jit_arguments, ptr %22, i32 0, i32 12
  store i32 %71, ptr %72, align 8
  %73 = load ptr, ptr %15, align 8
  %74 = icmp ne ptr %73, null
  br i1 %74, label %75, label %123

75:                                               ; preds = %55
  %76 = load ptr, ptr %15, align 8
  %77 = getelementptr inbounds %struct.pcre2_real_match_context_8, ptr %76, i32 0, i32 3
  %78 = load ptr, ptr %77, align 8
  %79 = getelementptr inbounds %struct.jit_arguments, ptr %22, i32 0, i32 7
  store ptr %78, ptr %79, align 8
  %80 = load ptr, ptr %15, align 8
  %81 = getelementptr inbounds %struct.pcre2_real_match_context_8, ptr %80, i32 0, i32 4
  %82 = load ptr, ptr %81, align 8
  %83 = getelementptr inbounds %struct.jit_arguments, ptr %22, i32 0, i32 8
  store ptr %82, ptr %83, align 8
  %84 = load ptr, ptr %15, align 8
  %85 = getelementptr inbounds %struct.pcre2_real_match_context_8, ptr %84, i32 0, i32 7
  %86 = load i64, ptr %85, align 8
  %87 = getelementptr inbounds %struct.jit_arguments, ptr %22, i32 0, i32 9
  store i64 %86, ptr %87, align 8
  %88 = load ptr, ptr %15, align 8
  %89 = getelementptr inbounds %struct.pcre2_real_match_context_8, ptr %88, i32 0, i32 9
  %90 = load i32, ptr %89, align 4
  %91 = load ptr, ptr %16, align 8
  %92 = getelementptr inbounds %struct.pcre2_real_code_8, ptr %91, i32 0, i32 11
  %93 = load i32, ptr %92, align 8
  %94 = icmp ult i32 %90, %93
  br i1 %94, label %95, label %99

95:                                               ; preds = %75
  %96 = load ptr, ptr %15, align 8
  %97 = getelementptr inbounds %struct.pcre2_real_match_context_8, ptr %96, i32 0, i32 9
  %98 = load i32, ptr %97, align 4
  br label %103

99:                                               ; preds = %75
  %100 = load ptr, ptr %16, align 8
  %101 = getelementptr inbounds %struct.pcre2_real_code_8, ptr %100, i32 0, i32 11
  %102 = load i32, ptr %101, align 8
  br label %103

103:                                              ; preds = %99, %95
  %104 = phi i32 [ %98, %95 ], [ %102, %99 ]
  %105 = getelementptr inbounds %struct.jit_arguments, ptr %22, i32 0, i32 10
  store i32 %104, ptr %105, align 8
  %106 = load ptr, ptr %15, align 8
  %107 = getelementptr inbounds %struct.pcre2_real_match_context_8, ptr %106, i32 0, i32 1
  %108 = load ptr, ptr %107, align 8
  %109 = icmp ne ptr %108, null
  br i1 %109, label %110, label %118

110:                                              ; preds = %103
  %111 = load ptr, ptr %15, align 8
  %112 = getelementptr inbounds %struct.pcre2_real_match_context_8, ptr %111, i32 0, i32 1
  %113 = load ptr, ptr %112, align 8
  %114 = load ptr, ptr %15, align 8
  %115 = getelementptr inbounds %struct.pcre2_real_match_context_8, ptr %114, i32 0, i32 2
  %116 = load ptr, ptr %115, align 8
  %117 = call ptr %113(ptr noundef %116)
  store ptr %117, ptr %18, align 8
  br label %122

118:                                              ; preds = %103
  %119 = load ptr, ptr %15, align 8
  %120 = getelementptr inbounds %struct.pcre2_real_match_context_8, ptr %119, i32 0, i32 2
  %121 = load ptr, ptr %120, align 8
  store ptr %121, ptr %18, align 8
  br label %122

122:                                              ; preds = %118, %110
  br label %139

123:                                              ; preds = %55
  %124 = getelementptr inbounds %struct.jit_arguments, ptr %22, i32 0, i32 7
  store ptr null, ptr %124, align 8
  %125 = getelementptr inbounds %struct.jit_arguments, ptr %22, i32 0, i32 8
  store ptr null, ptr %125, align 8
  %126 = getelementptr inbounds %struct.jit_arguments, ptr %22, i32 0, i32 9
  store i64 -1, ptr %126, align 8
  %127 = load ptr, ptr %16, align 8
  %128 = getelementptr inbounds %struct.pcre2_real_code_8, ptr %127, i32 0, i32 11
  %129 = load i32, ptr %128, align 8
  %130 = icmp ult i32 10000000, %129
  br i1 %130, label %131, label %132

131:                                              ; preds = %123
  br label %136

132:                                              ; preds = %123
  %133 = load ptr, ptr %16, align 8
  %134 = getelementptr inbounds %struct.pcre2_real_code_8, ptr %133, i32 0, i32 11
  %135 = load i32, ptr %134, align 8
  br label %136

136:                                              ; preds = %132, %131
  %137 = phi i32 [ 10000000, %131 ], [ %135, %132 ]
  %138 = getelementptr inbounds %struct.jit_arguments, ptr %22, i32 0, i32 10
  store i32 %137, ptr %138, align 8
  store ptr null, ptr %18, align 8
  br label %139

139:                                              ; preds = %136, %122
  %140 = load ptr, ptr %17, align 8
  %141 = getelementptr inbounds %struct.executable_functions, ptr %140, i32 0, i32 3
  %142 = load i32, ptr %141, align 8
  store i32 %142, ptr %20, align 4
  %143 = load i32, ptr %19, align 4
  %144 = load i32, ptr %20, align 4
  %145 = icmp ugt i32 %143, %144
  br i1 %145, label %146, label %148

146:                                              ; preds = %139
  %147 = load i32, ptr %20, align 4
  store i32 %147, ptr %19, align 4
  br label %148

148:                                              ; preds = %146, %139
  %149 = load i32, ptr %19, align 4
  %150 = shl i32 %149, 1
  %151 = getelementptr inbounds %struct.jit_arguments, ptr %22, i32 0, i32 11
  store i32 %150, ptr %151, align 4
  %152 = load ptr, ptr %17, align 8
  %153 = getelementptr inbounds %struct.executable_functions, ptr %152, i32 0, i32 0
  %154 = load i32, ptr %24, align 4
  %155 = sext i32 %154 to i64
  %156 = getelementptr inbounds [3 x ptr], ptr %153, i64 0, i64 %155
  %157 = load ptr, ptr %156, align 8
  store ptr %157, ptr %21, align 8
  %158 = load ptr, ptr %18, align 8
  %159 = icmp ne ptr %158, null
  br i1 %159, label %160, label %167

160:                                              ; preds = %148
  %161 = load ptr, ptr %18, align 8
  %162 = getelementptr inbounds %struct.pcre2_real_jit_stack_8, ptr %161, i32 0, i32 1
  %163 = load ptr, ptr %162, align 8
  %164 = getelementptr inbounds %struct.jit_arguments, ptr %22, i32 0, i32 0
  store ptr %163, ptr %164, align 8
  %165 = load ptr, ptr %21, align 8
  %166 = call i32 %165(ptr noundef %22)
  store i32 %166, ptr %23, align 4
  br label %170

167:                                              ; preds = %148
  %168 = load ptr, ptr %21, align 8
  %169 = call i32 @jit_machine_stack_exec(ptr noundef %22, ptr noundef %168)
  store i32 %169, ptr %23, align 4
  br label %170

170:                                              ; preds = %167, %160
  %171 = load i32, ptr %23, align 4
  %172 = load i32, ptr %19, align 4
  %173 = icmp sgt i32 %171, %172
  br i1 %173, label %174, label %175

174:                                              ; preds = %170
  store i32 0, ptr %23, align 4
  br label %175

175:                                              ; preds = %174, %170
  %176 = load ptr, ptr %16, align 8
  %177 = load ptr, ptr %14, align 8
  %178 = getelementptr inbounds %struct.pcre2_real_match_data_8, ptr %177, i32 0, i32 1
  store ptr %176, ptr %178, align 8
  %179 = load i32, ptr %23, align 4
  %180 = icmp sge i32 %179, 0
  br i1 %180, label %184, label %181

181:                                              ; preds = %175
  %182 = load i32, ptr %23, align 4
  %183 = icmp eq i32 %182, -2
  br i1 %183, label %184, label %186

184:                                              ; preds = %181, %175
  %185 = load ptr, ptr %10, align 8
  br label %187

186:                                              ; preds = %181
  br label %187

187:                                              ; preds = %186, %184
  %188 = phi ptr [ %185, %184 ], [ null, %186 ]
  %189 = load ptr, ptr %14, align 8
  %190 = getelementptr inbounds %struct.pcre2_real_match_data_8, ptr %189, i32 0, i32 2
  store ptr %188, ptr %190, align 8
  %191 = load i64, ptr %11, align 8
  %192 = load ptr, ptr %14, align 8
  %193 = getelementptr inbounds %struct.pcre2_real_match_data_8, ptr %192, i32 0, i32 6
  store i64 %191, ptr %193, align 8
  %194 = load i32, ptr %23, align 4
  %195 = load ptr, ptr %14, align 8
  %196 = getelementptr inbounds %struct.pcre2_real_match_data_8, ptr %195, i32 0, i32 13
  store i32 %194, ptr %196, align 4
  %197 = getelementptr inbounds %struct.jit_arguments, ptr %22, i32 0, i32 5
  %198 = load ptr, ptr %197, align 8
  %199 = load ptr, ptr %10, align 8
  %200 = ptrtoint ptr %198 to i64
  %201 = ptrtoint ptr %199 to i64
  %202 = sub i64 %200, %201
  %203 = load ptr, ptr %14, align 8
  %204 = getelementptr inbounds %struct.pcre2_real_match_data_8, ptr %203, i32 0, i32 9
  store i64 %202, ptr %204, align 8
  %205 = load ptr, ptr %14, align 8
  %206 = getelementptr inbounds %struct.pcre2_real_match_data_8, ptr %205, i32 0, i32 7
  store i64 0, ptr %206, align 8
  %207 = load ptr, ptr %14, align 8
  %208 = getelementptr inbounds %struct.pcre2_real_match_data_8, ptr %207, i32 0, i32 8
  store i64 0, ptr %208, align 8
  %209 = getelementptr inbounds %struct.jit_arguments, ptr %22, i32 0, i32 6
  %210 = load ptr, ptr %209, align 8
  %211 = load ptr, ptr %14, align 8
  %212 = getelementptr inbounds %struct.pcre2_real_match_data_8, ptr %211, i32 0, i32 3
  store ptr %210, ptr %212, align 8
  %213 = load ptr, ptr %14, align 8
  %214 = getelementptr inbounds %struct.pcre2_real_match_data_8, ptr %213, i32 0, i32 10
  store i8 2, ptr %214, align 8
  %215 = load ptr, ptr %14, align 8
  %216 = getelementptr inbounds %struct.pcre2_real_match_data_8, ptr %215, i32 0, i32 13
  %217 = load i32, ptr %216, align 4
  store i32 %217, ptr %8, align 4
  br label %218

218:                                              ; preds = %187, %54
  %219 = load i32, ptr %8, align 4
  ret i32 %219
}