; Function Attrs: nounwind uwtable
define i32 @php_pcre2_jit_match(ptr noundef %0, ptr noundef %1, i64 noundef %2, i64 noundef %3, i32 noundef %4, ptr noundef %5, ptr noundef readonly %6) local_unnamed_addr #0 {
  %8 = alloca [32768 x i8], align 16
  %9 = alloca %struct.sljit_stack, align 8
  %10 = alloca %struct.jit_arguments, align 8
  %11 = getelementptr inbounds i8, ptr %0, i64 32
  %12 = load ptr, ptr %11, align 8
  %13 = getelementptr inbounds i8, ptr %5, i64 98
  %14 = load i16, ptr %13, align 2
  %15 = zext i16 %14 to i32
  %16 = icmp eq ptr %12, null
  br i1 %16, label %95, label %17

17:                                               ; preds = %7
  %18 = and i32 %4, 32
  %.not = icmp eq i32 %18, 0
  %19 = lshr i32 %4, 4
  %.lobit = and i32 %19, 1
  %narrow = select i1 %.not, i32 %.lobit, i32 2
  %.0 = zext nneg i32 %narrow to i64
  %20 = getelementptr inbounds [3 x ptr], ptr %12, i64 0, i64 %.0
  %21 = load ptr, ptr %20, align 8
  %22 = icmp eq ptr %21, null
  br i1 %22, label %95, label %23

23:                                               ; preds = %17
  %24 = getelementptr inbounds i8, ptr %1, i64 %3
  %25 = getelementptr inbounds i8, ptr %10, i64 8
  store ptr %24, ptr %25, align 8
  %26 = getelementptr inbounds i8, ptr %10, i64 16
  store ptr %1, ptr %26, align 8
  %27 = getelementptr inbounds i8, ptr %1, i64 %2
  %28 = getelementptr inbounds i8, ptr %10, i64 24
  store ptr %27, ptr %28, align 8
  %29 = getelementptr inbounds i8, ptr %10, i64 32
  store ptr %5, ptr %29, align 8
  %30 = getelementptr inbounds i8, ptr %10, i64 40
  store ptr %1, ptr %30, align 8
  %31 = getelementptr inbounds i8, ptr %10, i64 48
  store ptr null, ptr %31, align 8
  %32 = getelementptr inbounds i8, ptr %10, i64 88
  store i32 %4, ptr %32, align 8
  %.not73 = icmp eq ptr %6, null
  br i1 %.not73, label %.thread, label %33

33:                                               ; preds = %23
  %34 = getelementptr inbounds i8, ptr %6, i64 40
  %35 = getelementptr inbounds i8, ptr %10, i64 56
  %36 = load <2 x ptr>, ptr %34, align 8
  store <2 x ptr> %36, ptr %35, align 8
  %37 = getelementptr inbounds i8, ptr %6, i64 72
  %38 = load i64, ptr %37, align 8
  %39 = getelementptr inbounds i8, ptr %10, i64 72
  store i64 %38, ptr %39, align 8
  %40 = getelementptr inbounds i8, ptr %6, i64 84
  %41 = load i32, ptr %40, align 4
  %42 = getelementptr inbounds i8, ptr %0, i64 104
  %43 = load i32, ptr %42, align 8
  %. = tail call i32 @llvm.umin.i32(i32 %41, i32 %43)
  %44 = getelementptr inbounds i8, ptr %10, i64 80
  store i32 %., ptr %44, align 8
  %45 = getelementptr inbounds i8, ptr %6, i64 24
  %46 = load ptr, ptr %45, align 8
  %.not74 = icmp eq ptr %46, null
  %47 = getelementptr inbounds i8, ptr %6, i64 32
  %48 = load ptr, ptr %47, align 8
  br i1 %.not74, label %60, label %49

49:                                               ; preds = %33
  %50 = tail call ptr %46(ptr noundef %48) #18
  %.pre = load ptr, ptr %20, align 8
  br label %60

.thread:                                          ; preds = %23
  %51 = getelementptr inbounds i8, ptr %10, i64 56
  %52 = getelementptr inbounds i8, ptr %10, i64 72
  call void @llvm.memset.p0.i64(ptr noundef nonnull align 8 dereferenceable(16) %51, i8 0, i64 16, i1 false)
  store i64 -1, ptr %52, align 8
  %53 = getelementptr inbounds i8, ptr %0, i64 104
  %54 = load i32, ptr %53, align 8
  %spec.select76 = tail call i32 @llvm.umin.i32(i32 %54, i32 10000000)
  %55 = getelementptr inbounds i8, ptr %10, i64 80
  store i32 %spec.select76, ptr %55, align 8
  %56 = getelementptr inbounds i8, ptr %12, i64 72
  %57 = load i32, ptr %56, align 8
  %spec.select7779 = tail call i32 @llvm.umin.i32(i32 %57, i32 %15)
  %58 = shl nuw nsw i32 %spec.select7779, 1
  %59 = getelementptr inbounds i8, ptr %10, i64 84
  store i32 %58, ptr %59, align 4
  br label %70

60:                                               ; preds = %33, %49
  %61 = phi ptr [ %.pre, %49 ], [ %21, %33 ]
  %.062 = phi ptr [ %50, %49 ], [ %48, %33 ]
  %62 = getelementptr inbounds i8, ptr %12, i64 72
  %63 = load i32, ptr %62, align 8
  %spec.select77 = tail call i32 @llvm.umin.i32(i32 %63, i32 %15)
  %64 = shl nuw nsw i32 %spec.select77, 1
  %65 = getelementptr inbounds i8, ptr %10, i64 84
  store i32 %64, ptr %65, align 4
  %.not75 = icmp eq ptr %.062, null
  br i1 %.not75, label %70, label %66

66:                                               ; preds = %60
  %67 = getelementptr inbounds i8, ptr %.062, i64 24
  %68 = load ptr, ptr %67, align 8
  store ptr %68, ptr %10, align 8
  %69 = call i32 %61(ptr noundef nonnull %10) #18
  br label %77

70:                                               ; preds = %.thread, %60
  %spec.select7782 = phi i32 [ %spec.select7779, %.thread ], [ %spec.select77, %60 ]
  %71 = phi ptr [ %21, %.thread ], [ %61, %60 ]
  call void @llvm.lifetime.start.p0(i64 32768, ptr nonnull %8)
  call void @llvm.lifetime.start.p0(i64 32, ptr nonnull %9)
  %72 = getelementptr inbounds i8, ptr %9, i64 24
  store ptr %8, ptr %72, align 8
  %73 = getelementptr inbounds i8, ptr %9, i64 16
  store ptr %8, ptr %73, align 8
  %74 = getelementptr inbounds i8, ptr %8, i64 32768
  %75 = getelementptr inbounds i8, ptr %9, i64 8
  store ptr %74, ptr %75, align 8
  store ptr %74, ptr %9, align 8
  store ptr %9, ptr %10, align 8
  %76 = call i32 %71(ptr noundef nonnull %10) #18
  call void @llvm.lifetime.end.p0(i64 32768, ptr nonnull %8)
  call void @llvm.lifetime.end.p0(i64 32, ptr nonnull %9)
  br label %77

77:                                               ; preds = %70, %66
  %spec.select7781 = phi i32 [ %spec.select77, %66 ], [ %spec.select7782, %70 ]
  %.060 = phi i32 [ %69, %66 ], [ %76, %70 ]
  %78 = icmp sgt i32 %.060, %spec.select7781
  %spec.store.select = select i1 %78, i32 0, i32 %.060
  %79 = getelementptr inbounds i8, ptr %5, i64 24
  store ptr %0, ptr %79, align 8
  %80 = icmp sgt i32 %spec.store.select, -1
  %81 = icmp eq i32 %spec.store.select, -2
  %or.cond = or i1 %80, %81
  %82 = select i1 %or.cond, ptr %1, ptr null
  %83 = getelementptr inbounds i8, ptr %5, i64 32
  store ptr %82, ptr %83, align 8
  %84 = getelementptr inbounds i8, ptr %5, i64 64
  store i64 %2, ptr %84, align 8
  %85 = getelementptr inbounds i8, ptr %5, i64 100
  store i32 %spec.store.select, ptr %85, align 4
  %86 = load ptr, ptr %30, align 8
  %87 = ptrtoint ptr %86 to i64
  %88 = ptrtoint ptr %1 to i64
  %89 = sub i64 %87, %88
  %90 = getelementptr inbounds i8, ptr %5, i64 88
  store i64 %89, ptr %90, align 8
  %91 = getelementptr inbounds i8, ptr %5, i64 72
  call void @llvm.memset.p0.i64(ptr noundef nonnull align 8 dereferenceable(16) %91, i8 0, i64 16, i1 false)
  %92 = load ptr, ptr %31, align 8
  %93 = getelementptr inbounds i8, ptr %5, i64 40
  store ptr %92, ptr %93, align 8
  %94 = getelementptr inbounds i8, ptr %5, i64 96
  store i8 2, ptr %94, align 8
  br label %95

95:                                               ; preds = %7, %17, %77
  %.061 = phi i32 [ %spec.store.select, %77 ], [ -45, %17 ], [ -45, %7 ]
  ret i32 %.061
}